CA Certificate Chain
 

Total number of certificates: 2

 

Certificate 1:

Certificate Subject DN
CN=DOD CA-27,OU=PKI,OU=DoD,O=U.S. Government,C=US

Certificate in base64 encoded format

-----BEGIN CERTIFICATE-----
MIIFTDCCBDSgAwIBAgICAbIwDQYJKoZIhvcNAQEFBQAwWzELMAkGA1UEBhMCVVMx
GDAWBgNVBAoTD1UuUy4gR292ZXJubWVudDEMMAoGA1UECxMDRG9EMQwwCgYDVQQL
EwNQS0kxFjAUBgNVBAMTDURvRCBSb290IENBIDIwHhcNMTEwOTA4MTU1MDI1WhcN
MTcwOTA4MTU1MDI1WjBXMQswCQYDVQQGEwJVUzEYMBYGA1UEChMPVS5TLiBHb3Zl
cm5tZW50MQwwCgYDVQQLEwNEb0QxDDAKBgNVBAsTA1BLSTESMBAGA1UEAxMJRE9E
IENBLTI3MIIBIjANBgkqhkiG9w0BAQEFAAOCAQ8AMIIBCgKCAQEAloQI/Xq6tpSD
0J07GQvPBN+IKp64GljrhyIqYzp/OcNra+e8GqgRAvVhzQGkmHVzxheMiTxCx+KO
yYmxqP+fngq7aN663rYRAZRDdJy9z+G+4M4cbWp8fH9i6F7aNuqUxQaLRojiwMIk
CQVQf/PZ5RIFXtLXzjXCe0c1GBVXzcWc9+kxeiqMOfE1ji6hUJFAN6KOks6MVrf8
7C92PILewMi7R9Z+96koXCkelgCtJ4Z0hLQEuqdVFmkOk9S8jGJNT1aCtse0eC99
2dND7XMm8VPu/7PVsORutr4tG2gNd1iEV0LPQHCMvMrAOXVO9xmIfGvsKcZkHehT
UL2UquSD3QIDAQABo4ICHDCCAhgwDgYDVR0PAQH/BAQDAgGGMB8GA1UdIwQYMBaA
FEl0uwxeunr+AlTve6DGlcYJgHCWMB0GA1UdDgQWBBQbBARARV59K14LzJllTfOk
3pB3FzASBgNVHRMBAf8ECDAGAQH/AgEAMAwGA1UdJAQFMAOAAQAwZgYDVR0gBF8w
XTALBglghkgBZQIBCwUwCwYJYIZIAWUCAQsJMAsGCWCGSAFlAgELETALBglghkgB
ZQIBCxIwCwYJYIZIAWUCAQsTMAwGCmCGSAFlAwIBAxowDAYKYIZIAWUDAgEDGzA3
BgNVHR8EMDAuMCygKqAohiZodHRwOi8vY3JsLmRpc2EubWlsL2NybC9ET0RST09U
Q0EyLmNybDCCAQEGCCsGAQUFBwEBBIH0MIHxMDoGCCsGAQUFBzAChi5odHRwOi8v
Y3JsLmRpc2EubWlsL2lzc3VlZHRvL0RPRFJPT1RDQTJfSVQucDdjMCAGCCsGAQUF
BzABhhRodHRwOi8vb2NzcC5kaXNhLm1pbDCBkAYIKwYBBQUHMAKGgYNsZGFwOi8v
Y3JsLmdkcy5kaXNhLm1pbC9jbiUzZERvRCUyMFJvb3QlMjBDQSUyMDIlMmNvdSUz
ZFBLSSUyY291JTNkRG9EJTJjbyUzZFUuUy4lMjBHb3Zlcm5tZW50JTJjYyUzZFVT
P2Nyb3NzQ2VydGlmaWNhdGVQYWlyO2JpbmFyeTANBgkqhkiG9w0BAQUFAAOCAQEA
QMAMS5+NI6Yx0TSunpFcX4TdnASVYc2AFB9u3oiXfOmvpfX3cCfhEESTCjGkCaaf
cEsikE6/Fv9iT9f0gjVCFwfutabLa4S3Gm4XHEUXTNHNz+XcDNfF9sa6LpyzO29c
Fl5DbCVKnPWw7/mqE866pj2yUNx0LLgUFXm95h2RHWgaPhW1B3dR0V8DrAGm0mbo
CtevM6EzlQht/IiSkvVy+i6PkzGkvykjoyFTuj6wdSDkFUA6WMjIHt3LdRC1QQHm
Flpo9zc51hG2MCX7tH7IEsbYn2Op2W2G0jZHoXMpIv4C9GMrKSCXrrU0vFjmYLYR
14Km5+I3fjt7Bngmb2xFcw==
-----END CERTIFICATE-----

Certificate Contents

    Certificate: 
        Data: 
            Version:  v3
            Serial Number: 0x1B2
            Signature Algorithm: SHA1withRSA - 1.2.840.113549.1.1.5
            Issuer: CN=DoD Root CA 2,OU=PKI,OU=DoD,O=U.S. Government,C=US
            Validity: 
                Not Before: Thursday, September 8, 2011 3:50:25 PM GMT
                Not  After: Friday, September 8, 2017 3:50:25 PM GMT
            Subject: CN=DOD CA-27,OU=PKI,OU=DoD,O=U.S. Government,C=US
            Subject Public Key Info: 
                Algorithm: RSA - 1.2.840.113549.1.1.1
                Public Key: 
                    Exponent: 65537
                    Public Key Modulus: (2048 bits) :
                        96:84:08:FD:7A:BA:B6:94:83:D0:9D:3B:19:0B:CF:04:
                        DF:88:2A:9E:B8:1A:58:EB:87:22:2A:63:3A:7F:39:C3:
                        6B:6B:E7:BC:1A:A8:11:02:F5:61:CD:01:A4:98:75:73:
                        C6:17:8C:89:3C:42:C7:E2:8E:C9:89:B1:A8:FF:9F:9E:
                        0A:BB:68:DE:BA:DE:B6:11:01:94:43:74:9C:BD:CF:E1:
                        BE:E0:CE:1C:6D:6A:7C:7C:7F:62:E8:5E:DA:36:EA:94:
                        C5:06:8B:46:88:E2:C0:C2:24:09:05:50:7F:F3:D9:E5:
                        12:05:5E:D2:D7:CE:35:C2:7B:47:35:18:15:57:CD:C5:
                        9C:F7:E9:31:7A:2A:8C:39:F1:35:8E:2E:A1:50:91:40:
                        37:A2:8E:92:CE:8C:56:B7:FC:EC:2F:76:3C:82:DE:C0:
                        C8:BB:47:D6:7E:F7:A9:28:5C:29:1E:96:00:AD:27:86:
                        74:84:B4:04:BA:A7:55:16:69:0E:93:D4:BC:8C:62:4D:
                        4F:56:82:B6:C7:B4:78:2F:7D:D9:D3:43:ED:73:26:F1:
                        53:EE:FF:B3:D5:B0:E4:6E:B6:BE:2D:1B:68:0D:77:58:
                        84:57:42:CF:40:70:8C:BC:CA:C0:39:75:4E:F7:19:88:
                        7C:6B:EC:29:C6:64:1D:E8:53:50:BD:94:AA:E4:83:DD
            Extensions: 
                Identifier: Key Usage: - 2.5.29.15
                    Critical: yes 
                    Key Usage: 
                        Digital Signature 
                        Key CertSign 
                        Crl Sign 
                Identifier: Authority Key Identifier - 2.5.29.35
                    Critical: no 
                    Key Identifier: 
                        49:74:BB:0C:5E:BA:7A:FE:02:54:EF:7B:A0:C6:95:C6:
                        09:80:70:96
                Identifier: Subject Key Identifier - 2.5.29.14
                    Critical: no 
                    Key Identifier: 
                        1B:04:04:40:45:5E:7D:2B:5E:0B:CC:99:65:4D:F3:A4:
                        DE:90:77:17
                Identifier: Basic Constraints - 2.5.29.19
                    Critical: yes 
                    Is CA: yes 
                    Path Length Constraint: 0
                Identifier: Policy Constraints - 2.5.29.36
                    Critical: no 
                    Require Explicit Policy: 0
                    Inhibit Policy Mapping: not set
                Identifier: Certificate Policies: - 2.5.29.32
                    Critical: no 
                    Certificate Policies: 
                        2.16.840.1.101.2.1.11.5
                        2.16.840.1.101.2.1.11.9
                        2.16.840.1.101.2.1.11.17
                        2.16.840.1.101.2.1.11.18
                        2.16.840.1.101.2.1.11.19
                        2.16.840.1.101.3.2.1.3.26
                        2.16.840.1.101.3.2.1.3.27
                Identifier:  CRLDistributionPoints - 2.5.29.31
                    Critical: no 
                    Value: 
                        30:2E:30:2C:A0:2A:A0:28:86:26:68:74:74:70:3A:2F:
                        2F:63:72:6C:2E:64:69:73:61:2E:6D:69:6C:2F:63:72:
                        6C:2F:44:4F:44:52:4F:4F:54:43:41:32:2E:63:72:6C
                Identifier: Authority Info Access: - 1.3.6.1.5.5.7.1.1
                    Critical: no 
                    Access Description: 
                        Method #0: 1.3.6.1.5.5.7.48.2
                        Location #0: URIName: http://crl.disa.mil/issuedto/DODROOTCA2_IT.p7c
                        Method #1: ocsp
                        Location #1: URIName: http://ocsp.disa.mil
                        Method #2: 1.3.6.1.5.5.7.48.2
                        Location #2: URIName: ldap://crl.gds.disa.mil/cn%3dDoD%20Root%20CA%202%2cou%3dPKI%2cou%3dDoD%2co%3dU.S.%20Government%2cc%3dUS?crossCertificatePair;binary
        Signature: 
            Algorithm: SHA1withRSA - 1.2.840.113549.1.1.5
            Signature: 
                40:C0:0C:4B:9F:8D:23:A6:31:D1:34:AE:9E:91:5C:5F:
                84:DD:9C:04:95:61:CD:80:14:1F:6E:DE:88:97:7C:E9:
                AF:A5:F5:F7:70:27:E1:10:44:93:0A:31:A4:09:A6:9F:
                70:4B:22:90:4E:BF:16:FF:62:4F:D7:F4:82:35:42:17:
                07:EE:B5:A6:CB:6B:84:B7:1A:6E:17:1C:45:17:4C:D1:
                CD:CF:E5:DC:0C:D7:C5:F6:C6:BA:2E:9C:B3:3B:6F:5C:
                16:5E:43:6C:25:4A:9C:F5:B0:EF:F9:AA:13:CE:BA:A6:
                3D:B2:50:DC:74:2C:B8:14:15:79:BD:E6:1D:91:1D:68:
                1A:3E:15:B5:07:77:51:D1:5F:03:AC:01:A6:D2:66:E8:
                0A:D7:AF:33:A1:33:95:08:6D:FC:88:92:92:F5:72:FA:
                2E:8F:93:31:A4:BF:29:23:A3:21:53:BA:3E:B0:75:20:
                E4:15:40:3A:58:C8:C8:1E:DD:CB:75:10:B5:41:01:E6:
                16:5A:68:F7:37:39:D6:11:B6:30:25:FB:B4:7E:C8:12:
                C6:D8:9F:63:A9:D9:6D:86:D2:36:47:A1:73:29:22:FE:
                02:F4:63:2B:29:20:97:AE:B5:34:BC:58:E6:60:B6:11:
                D7:82:A6:E7:E2:37:7E:3B:7B:06:78:26:6F:6C:45:73

Certificate Fingerprint

      MD2:     F6:46:85:CB:CE:F7:E9:47:1B:C9:6E:51:FB:CA:FE:CE
      MD5:     28:FF:40:B6:81:C3:88:56:85:8A:98:F2:B3:D6:70:58
      SHA1:    CE:D0:0D:53:66:8B:58:7E:7B:6B:A6:E1:3C:05:1D:1B:59:C2:5E:6B
      SHA256:  07:66:A7:43:10:06:A9:23:50:B2:97:54:84:67:A7:DA:A7:A5:79:44:DB:E0:41:B3:33:C9:A7:2E:1D:D6:DC:A4
      SHA512:  6A:BA:59:7C:F4:06:ED:C0:C2:9D:00:2E:28:4A:FE:C0:FC:DB:95:D2:A3:C9:E3:92:B5:EF:FA:B0:45:16:1B:05:DD:6B:70:58:96:83:F6:70:E9:57:0E:68:83:DA:52:93:13:E2:90:DF:F5:FD:BD:51:DC:CF:BB:AB:87:1A:4A:E2

 

Certificate 2:

Certificate Subject DN
CN=DoD Root CA 2,OU=PKI,OU=DoD,O=U.S. Government,C=US

Certificate in base64 encoded format

-----BEGIN CERTIFICATE-----
MIIDcDCCAligAwIBAgIBBTANBgkqhkiG9w0BAQUFADBbMQswCQYDVQQGEwJVUzEY
MBYGA1UEChMPVS5TLiBHb3Zlcm5tZW50MQwwCgYDVQQLEwNEb0QxDDAKBgNVBAsT
A1BLSTEWMBQGA1UEAxMNRG9EIFJvb3QgQ0EgMjAeFw0wNDEyMTMxNTAwMTBaFw0y
OTEyMDUxNTAwMTBaMFsxCzAJBgNVBAYTAlVTMRgwFgYDVQQKEw9VLlMuIEdvdmVy
bm1lbnQxDDAKBgNVBAsTA0RvRDEMMAoGA1UECxMDUEtJMRYwFAYDVQQDEw1Eb0Qg
Um9vdCBDQSAyMIIBIjANBgkqhkiG9w0BAQEFAAOCAQ8AMIIBCgKCAQEAwCzB9o07
rP8/PNZxvrh0IgfscEEV/KtA4weqwcPYn/7aTDq/P8jYKHtLNgHArEUlw9IOCo+F
GGQQPRoTcCpvjtfcjZOzQQ84Ic2tq8I9KgXTVxE3Dc2MUfmT48xGSSGOFLTNyxQ+
OM1yMe6rEvJl6jQuVl3/7mN1y226kTT8nvP0LRy+UMRC31mI/2qz+qhsPctWcXEF
lrufgOWARVlnQbDrw61gpIB1BhecDvRD4JkOG/t/9bPMsoGCsf0ywbi+QaRktWA6
WlEwjM7eQSwZR1xJEGS5dKmHQa99brrBuKG/ZTE6BGf5tbuOkooAY7ix5ow4X4P/
UNU7ol1rshDMYwIDAQABoz8wPTAdBgNVHQ4EFgQUSXS7DF66ev4CVO97oMaVxgmA
cJYwCwYDVR0PBAQDAgGGMA8GA1UdEwEB/wQFMAMBAf8wDQYJKoZIhvcNAQEFBQAD
ggEBAJiRjT+JyLv1wGlzKTs1rLqzCHY9cAmS6YREIQF9FHYb7lFsHY0VNy17MWn0
mkS4r0bMNPojywMnGdKDIXUr5+AbmSbchECV6KjSzPZYXGbvP0qXEIIdugqi3VsG
K52nZE7rLgE1pLQ/E61V5NVzqGmbEfGY8jEeb0DU+HifjpGgb3AEkGaqBivO4XqS
tX3h4NGW56E6LcyxnR8FRO2HmdNNGnA5wQQM5X7Z8a/XIA7xInolpHOZzD+kByeW
qKKV7YK5FtOeC4fCwfKI9WLfaN/HvGlR7bFc3FRUKQ8JOZqsA8HbDE2ubwp6Fknx
v5HSOJTT9pUst2zJQraNypCNhdk=
-----END CERTIFICATE-----

Certificate Contents

    Certificate: 
        Data: 
            Version:  v3
            Serial Number: 0x5
            Signature Algorithm: SHA1withRSA - 1.2.840.113549.1.1.5
            Issuer: CN=DoD Root CA 2,OU=PKI,OU=DoD,O=U.S. Government,C=US
            Validity: 
                Not Before: Monday, December 13, 2004 3:00:10 PM GMT
                Not  After: Wednesday, December 5, 2029 3:00:10 PM GMT
            Subject: CN=DoD Root CA 2,OU=PKI,OU=DoD,O=U.S. Government,C=US
            Subject Public Key Info: 
                Algorithm: RSA - 1.2.840.113549.1.1.1
                Public Key: 
                    Exponent: 65537
                    Public Key Modulus: (2048 bits) :
                        C0:2C:C1:F6:8D:3B:AC:FF:3F:3C:D6:71:BE:B8:74:22:
                        07:EC:70:41:15:FC:AB:40:E3:07:AA:C1:C3:D8:9F:FE:
                        DA:4C:3A:BF:3F:C8:D8:28:7B:4B:36:01:C0:AC:45:25:
                        C3:D2:0E:0A:8F:85:18:64:10:3D:1A:13:70:2A:6F:8E:
                        D7:DC:8D:93:B3:41:0F:38:21:CD:AD:AB:C2:3D:2A:05:
                        D3:57:11:37:0D:CD:8C:51:F9:93:E3:CC:46:49:21:8E:
                        14:B4:CD:CB:14:3E:38:CD:72:31:EE:AB:12:F2:65:EA:
                        34:2E:56:5D:FF:EE:63:75:CB:6D:BA:91:34:FC:9E:F3:
                        F4:2D:1C:BE:50:C4:42:DF:59:88:FF:6A:B3:FA:A8:6C:
                        3D:CB:56:71:71:05:96:BB:9F:80:E5:80:45:59:67:41:
                        B0:EB:C3:AD:60:A4:80:75:06:17:9C:0E:F4:43:E0:99:
                        0E:1B:FB:7F:F5:B3:CC:B2:81:82:B1:FD:32:C1:B8:BE:
                        41:A4:64:B5:60:3A:5A:51:30:8C:CE:DE:41:2C:19:47:
                        5C:49:10:64:B9:74:A9:87:41:AF:7D:6E:BA:C1:B8:A1:
                        BF:65:31:3A:04:67:F9:B5:BB:8E:92:8A:00:63:B8:B1:
                        E6:8C:38:5F:83:FF:50:D5:3B:A2:5D:6B:B2:10:CC:63
            Extensions: 
                Identifier: Subject Key Identifier - 2.5.29.14
                    Critical: no 
                    Key Identifier: 
                        49:74:BB:0C:5E:BA:7A:FE:02:54:EF:7B:A0:C6:95:C6:
                        09:80:70:96
                Identifier: Key Usage: - 2.5.29.15
                    Critical: no 
                    Key Usage: 
                        Digital Signature 
                        Key CertSign 
                        Crl Sign 
                Identifier: Basic Constraints - 2.5.29.19
                    Critical: yes 
                    Is CA: yes 
                    Path Length Constraint: UNLIMITED
        Signature: 
            Algorithm: SHA1withRSA - 1.2.840.113549.1.1.5
            Signature: 
                98:91:8D:3F:89:C8:BB:F5:C0:69:73:29:3B:35:AC:BA:
                B3:08:76:3D:70:09:92:E9:84:44:21:01:7D:14:76:1B:
                EE:51:6C:1D:8D:15:37:2D:7B:31:69:F4:9A:44:B8:AF:
                46:CC:34:FA:23:CB:03:27:19:D2:83:21:75:2B:E7:E0:
                1B:99:26:DC:84:40:95:E8:A8:D2:CC:F6:58:5C:66:EF:
                3F:4A:97:10:82:1D:BA:0A:A2:DD:5B:06:2B:9D:A7:64:
                4E:EB:2E:01:35:A4:B4:3F:13:AD:55:E4:D5:73:A8:69:
                9B:11:F1:98:F2:31:1E:6F:40:D4:F8:78:9F:8E:91:A0:
                6F:70:04:90:66:AA:06:2B:CE:E1:7A:92:B5:7D:E1:E0:
                D1:96:E7:A1:3A:2D:CC:B1:9D:1F:05:44:ED:87:99:D3:
                4D:1A:70:39:C1:04:0C:E5:7E:D9:F1:AF:D7:20:0E:F1:
                22:7A:25:A4:73:99:CC:3F:A4:07:27:96:A8:A2:95:ED:
                82:B9:16:D3:9E:0B:87:C2:C1:F2:88:F5:62:DF:68:DF:
                C7:BC:69:51:ED:B1:5C:DC:54:54:29:0F:09:39:9A:AC:
                03:C1:DB:0C:4D:AE:6F:0A:7A:16:49:F1:BF:91:D2:38:
                94:D3:F6:95:2C:B7:6C:C9:42:B6:8D:CA:90:8D:85:D9

Certificate Fingerprint

      MD2:     1C:1D:A0:34:14:C2:DB:C1:88:DC:22:B2:E0:0C:02:8C
      MD5:     47:78:92:DB:8A:EC:1B:53:68:F0:1D:00:9C:34:77:5E
      SHA1:    8C:94:1B:34:EA:1E:A6:ED:9A:E2:BC:54:CF:68:72:52:B4:C9:B5:61
      SHA256:  96:76:F2:87:35:6C:89:A1:26:83:D6:52:34:09:8C:B7:7C:4F:1C:18:F2:3C:0E:54:1D:E0:E1:96:72:5B:7E:BE
      SHA512:  0F:13:DF:11:B2:E8:10:88:72:3A:4B:98:D8:F1:3A:31:47:3B:D8:45:18:7D:20:E2:63:5C:4E:98:89:E6:F6:FE:A3:2A:3B:6F:7B:75:A0:51:EA:68:D6:21:A5:60:BE:C6:F8:CA:7C:05:0C:58:C9:D7:8B:7A:6D:57:65:6A:12:99
